CCS PCM C Compiler, Version 4.104, 5967               08-nov.-20 01:12

               Filename: C:\Users\GerardML\Documents\Prueba Codigo C\Estudio.lst

               ROM used: 34 words (0%)
                         Largest free fragment is 2048
               RAM used: 6 (2%) at main() level
                         6 (2%) worst case
               Stack:    0 locations

*
0000:  MOVLW  00
0001:  MOVWF  0A
0002:  GOTO   004
0003:  NOP
.................... #Include <16f876.h> 
.................... //////// Standard Header file for the PIC16F876 device //////////////// 
.................... #device PIC16F876 
.................... #list 
....................  
.................... #fuses xt,nowdt 
.................... #use delay (clock = 4000000) 
.................... #byte TrisB = 0X86 
.................... #byte PortB = 0X06 
.................... #byte Option_reg = 0x81 
....................  
.................... void main() { 
0004:  CLRF   04
0005:  BCF    03.7
0006:  MOVLW  1F
0007:  ANDWF  03,F
0008:  BSF    03.5
0009:  BSF    1F.0
000A:  BSF    1F.1
000B:  BSF    1F.2
000C:  BCF    1F.3
....................    bit_clear(Option_reg,7); 
000D:  BCF    01.7
....................    bit_set(TrisB,0);               //"set" para habilitar como entrada el pin 0, el "tris," hace la funcion de indicar el pin 
000E:  BSF    06.0
....................    bit_clear(TrisB,1);             //"clear" habilita el pin 1 como salida y limpia/manda 0 al pin 1 
000F:  BCF    06.1
....................    bit_clear(PortB,1); 
0010:  BCF    03.5
0011:  BCF    06.1
....................    bit_clear(TrisB,2); 
0012:  BSF    03.5
0013:  BCF    06.2
....................    bit_clear(PortB,2); 
0014:  BCF    03.5
0015:  BCF    06.2
....................    bit_clear(TrisB,3); 
0016:  BSF    03.5
0017:  BCF    06.3
....................    bit_clear(PortB,3); 
0018:  BCF    03.5
0019:  BCF    06.3
....................    bit_clear(TrisB,4); 
001A:  BSF    03.5
001B:  BCF    06.4
....................    bit_clear(PortB,4); 
001C:  BCF    03.5
001D:  BCF    06.4
....................     
....................    while(1){ 
....................       if (bit_test(PortB,0)==1){ 
001E:  BTFSC  06.0
....................          //bit_clear(PortB,1); 
....................          //PortB = 0b00000;         //Sentencia Binaria 
....................          //PortB = 0x00;            //Sentencia Hexa 
....................          //PortB = 000;             //Sentencia Octal 
....................          //PortB = 0;          //Sentencia Decimal 
....................       } 
....................       else{ 
001F:  GOTO   020
....................          //bit_set(PortB,1); 
....................          //PortB = 0b11110;            //Sentencia Binaria 
....................          //PortB = 0x1E;            //Sentencia Hexa 
....................          //PortB = 036;             //Sentencia Octal 
....................          //PortB = 30;             //Sentencia Decimal 
....................       } 
....................    } 
0020:  GOTO   01E
.................... } 
0021:  SLEEP

Configuration Fuses:
   Word  1: 3F71   XT NOWDT PUT NOPROTECT BROWNOUT NOLVP NOCPD NOWRT NODEBUG
