CCS PCM C Compiler, Version 4.104, 5967               02-feb.-21 19:17

               Filename: C:\Users\GerardML\Documents\Estudio\Prueba Codigo C\Contador 99\Contador 99.lst

               ROM used: 92 words (1%)
                         Largest free fragment is 2048
               RAM used: 9 (2%) at main() level
                         9 (2%) worst case
               Stack:    1 locations

*
0000:  MOVLW  00
0001:  MOVWF  0A
0002:  GOTO   027
0003:  NOP
.................... #include <16F876.h> 
.................... //////// Standard Header file for the PIC16F876 device //////////////// 
.................... #device PIC16F876 
.................... #list 
....................  
.................... #use delay(clock = 4000000) 
0012:  MOVLW  24
0013:  MOVWF  04
0014:  BCF    03.7
0015:  MOVF   00,W
0016:  BTFSC  03.2
0017:  GOTO   026
0018:  MOVLW  01
0019:  MOVWF  78
001A:  CLRF   77
001B:  DECFSZ 77,F
001C:  GOTO   01B
001D:  DECFSZ 78,F
001E:  GOTO   01A
001F:  MOVLW  4A
0020:  MOVWF  77
0021:  DECFSZ 77,F
0022:  GOTO   021
0023:  GOTO   024
0024:  DECFSZ 00,F
0025:  GOTO   018
0026:  RETURN
.................... //#fuses xt,nowdt,noprotect,noput 
....................  
.................... #use fast_io (a) 
.................... #use fast_io (b) 
.................... byte const display[10] = {0x40,0x79,0x24,0x30,0x99,0x12,0x02,0x38,0x00,0x18}; 
....................  
.................... void main(){ 
0027:  CLRF   04
0028:  BCF    03.7
0029:  MOVLW  1F
002A:  ANDWF  03,F
002B:  BSF    03.5
002C:  BSF    1F.0
002D:  BSF    1F.1
002E:  BSF    1F.2
002F:  BCF    1F.3
0030:  BCF    03.5
0031:  CLRF   21
0032:  CLRF   22
0033:  CLRF   23
....................    byte uni=0, dec=0, inc=0; 
....................    set_tris_a(0x00); 
0034:  MOVLW  00
0035:  BSF    03.5
0036:  MOVWF  05
....................    set_tris_b(0x00); 
0037:  MOVWF  06
....................    output_b(0); 
0038:  BCF    03.5
0039:  CLRF   06
....................     
....................    while(1){ 
....................       for(dec=0; dec<10; dec++){ 
003A:  CLRF   22
003B:  MOVF   22,W
003C:  SUBLW  09
003D:  BTFSS  03.0
003E:  GOTO   05A
....................          for(uni=0; uni<10; uni++){ 
003F:  CLRF   21
0040:  MOVF   21,W
0041:  SUBLW  09
0042:  BTFSS  03.0
0043:  GOTO   058
....................           
....................                output_a(0x02); 
0044:  MOVLW  02
0045:  MOVWF  05
....................                output_b(display[uni]); 
0046:  MOVF   21,W
0047:  CALL   004
0048:  MOVWF  24
0049:  MOVWF  06
....................              
....................             delay_ms(50); 
004A:  MOVLW  32
004B:  MOVWF  24
004C:  CALL   012
....................              
....................              
....................                output_a(0x01); 
004D:  MOVLW  01
004E:  MOVWF  05
....................                output_b(display[dec]); 
004F:  MOVF   22,W
0050:  CALL   004
0051:  MOVWF  24
0052:  MOVWF  06
....................              
....................             delay_ms(50); 
0053:  MOVLW  32
0054:  MOVWF  24
0055:  CALL   012
....................          } 
0056:  INCF   21,F
0057:  GOTO   040
....................       } 
0058:  INCF   22,F
0059:  GOTO   03B
....................    } 
005A:  GOTO   03A
....................    //while(dec<10); 
....................    //output_a(0x03); 
.................... } 
005B:  SLEEP

Configuration Fuses:
   Word  1: 3F73   RC NOWDT PUT NOPROTECT BROWNOUT NOLVP NOCPD NOWRT NODEBUG
